; ModuleID = '12/155.c'
source_filename = "12/155.c"
target datalayout = "e-m:e-p270:32:32-p271:32:32-p272:64:64-i64:64-f80:128-n8:16:32:64-S128"
target triple = "x86_64-pc-linux-gnu"

@.str = private unnamed_addr constant [3 x i8] c"%d\00", align 1
@.str.1 = private unnamed_addr constant [2 x i8] c"\0A\00", align 1

; Function Attrs: noinline nounwind uwtable
define dso_local void @main() #0 {
  %1 = alloca [20 x [20 x i32]], align 16
  %2 = alloca [100 x i32], align 16
  %3 = alloca i32, align 4
  %4 = alloca i32, align 4
  %5 = alloca i32, align 4
  %6 = alloca i32, align 4
  %7 = alloca i32, align 4
  %8 = alloca i32, align 4
  %9 = alloca i32, align 4
  %10 = alloca i32, align 4
  %11 = alloca i32, align 4
  %12 = alloca i32, align 4
  %13 = alloca i32, align 4
  store i32 0, i32* %7, align 4
  store i32 0, i32* %8, align 4
  store i32 0, i32* %9, align 4
  store i32 0, i32* %10, align 4
  store i32 0, i32* %13, align 4
  br label %14

14:                                               ; preds = %0, %92
  %15 = load i32, i32* %8, align 4
  %16 = add nsw i32 %15, 1
  store i32 %16, i32* %8, align 4
  %17 = call i32 (i8*, ...) @__isoc99_scanf(i8* getelementptr inbounds ([3 x i8], [3 x i8]* @.str, i64 0, i64 0), i32* %3)
  %18 = load i32, i32* %3, align 4
  %19 = icmp eq i32 -1, %18
  br i1 %19, label %20, label %21

20:                                               ; preds = %14
  br label %101

21:                                               ; preds = %14
  store i32 0, i32* %12, align 4
  %22 = load i32, i32* %3, align 4
  %23 = load i32, i32* %8, align 4
  %24 = sext i32 %23 to i64
  %25 = getelementptr inbounds [20 x [20 x i32]], [20 x [20 x i32]]* %1, i64 0, i64 %24
  %26 = load i32, i32* %13, align 4
  %27 = add nsw i32 %26, 1
  store i32 %27, i32* %13, align 4
  %28 = sext i32 %26 to i64
  %29 = getelementptr inbounds [20 x i32], [20 x i32]* %25, i64 0, i64 %28
  store i32 %22, i32* %29, align 4
  %30 = load i32, i32* %10, align 4
  %31 = add nsw i32 %30, 1
  store i32 %31, i32* %10, align 4
  br label %32

32:                                               ; preds = %21, %53
  %33 = call i32 (i8*, ...) @__isoc99_scanf(i8* getelementptr inbounds ([3 x i8], [3 x i8]* @.str, i64 0, i64 0), i32* %4)
  %34 = load i32, i32* %12, align 4
  %35 = add nsw i32 %34, 1
  store i32 %35, i32* %12, align 4
  %36 = load i32, i32* %4, align 4
  %37 = load i32, i32* %8, align 4
  %38 = sext i32 %37 to i64
  %39 = getelementptr inbounds [20 x [20 x i32]], [20 x [20 x i32]]* %1, i64 0, i64 %38
  %40 = load i32, i32* %13, align 4
  %41 = add nsw i32 %40, 1
  store i32 %41, i32* %13, align 4
  %42 = sext i32 %40 to i64
  %43 = getelementptr inbounds [20 x i32], [20 x i32]* %39, i64 0, i64 %42
  store i32 %36, i32* %43, align 4
  %44 = load i32, i32* %4, align 4
  %45 = icmp eq i32 0, %44
  br i1 %45, label %46, label %53

46:                                               ; preds = %32
  %47 = load i32, i32* %8, align 4
  %48 = sext i32 %47 to i64
  %49 = getelementptr inbounds [20 x [20 x i32]], [20 x [20 x i32]]* %1, i64 0, i64 %48
  %50 = load i32, i32* %13, align 4
  %51 = sext i32 %50 to i64
  %52 = getelementptr inbounds [20 x i32], [20 x i32]* %49, i64 0, i64 %51
  store i32 0, i32* %52, align 4
  br label %54

53:                                               ; preds = %32
  br label %32

54:                                               ; preds = %46
  store i32 0, i32* %6, align 4
  br label %55

55:                                               ; preds = %89, %54
  %56 = load i32, i32* %6, align 4
  %57 = load i32, i32* %12, align 4
  %58 = icmp slt i32 %56, %57
  br i1 %58, label %59, label %92

59:                                               ; preds = %55
  store i32 0, i32* %5, align 4
  br label %60

60:                                               ; preds = %85, %59
  %61 = load i32, i32* %5, align 4
  %62 = load i32, i32* %12, align 4
  %63 = icmp slt i32 %61, %62
  br i1 %63, label %64, label %88

64:                                               ; preds = %60
  %65 = load i32, i32* %8, align 4
  %66 = sext i32 %65 to i64
  %67 = getelementptr inbounds [20 x [20 x i32]], [20 x [20 x i32]]* %1, i64 0, i64 %66
  %68 = load i32, i32* %6, align 4
  %69 = sext i32 %68 to i64
  %70 = getelementptr inbounds [20 x i32], [20 x i32]* %67, i64 0, i64 %69
  %71 = load i32, i32* %70, align 4
  %72 = load i32, i32* %8, align 4
  %73 = sext i32 %72 to i64
  %74 = getelementptr inbounds [20 x [20 x i32]], [20 x [20 x i32]]* %1, i64 0, i64 %73
  %75 = load i32, i32* %5, align 4
  %76 = sext i32 %75 to i64
  %77 = getelementptr inbounds [20 x i32], [20 x i32]* %74, i64 0, i64 %76
  %78 = load i32, i32* %77, align 4
  %79 = mul nsw i32 %78, 2
  %80 = icmp eq i32 %71, %79
  br i1 %80, label %81, label %84

81:                                               ; preds = %64
  %82 = load i32, i32* %7, align 4
  %83 = add nsw i32 %82, 1
  store i32 %83, i32* %7, align 4
  br label %84

84:                                               ; preds = %81, %64
  br label %85

85:                                               ; preds = %84
  %86 = load i32, i32* %5, align 4
  %87 = add nsw i32 %86, 1
  store i32 %87, i32* %5, align 4
  br label %60

88:                                               ; preds = %60
  br label %89

89:                                               ; preds = %88
  %90 = load i32, i32* %6, align 4
  %91 = add nsw i32 %90, 1
  store i32 %91, i32* %6, align 4
  br label %55

92:                                               ; preds = %55
  %93 = load i32, i32* %7, align 4
  %94 = load i32, i32* %9, align 4
  %95 = add nsw i32 %94, 1
  store i32 %95, i32* %9, align 4
  %96 = sext i32 %94 to i64
  %97 = getelementptr inbounds [100 x i32], [100 x i32]* %2, i64 0, i64 %96
  store i32 %93, i32* %97, align 4
  store i32 0, i32* %7, align 4
  %98 = load i32, i32* %9, align 4
  %99 = sext i32 %98 to i64
  %100 = getelementptr inbounds [100 x i32], [100 x i32]* %2, i64 0, i64 %99
  store i32 0, i32* %100, align 4
  store i32 0, i32* %13, align 4
  br label %14

101:                                              ; preds = %20
  store i32 0, i32* %11, align 4
  br label %102

102:                                              ; preds = %113, %101
  %103 = load i32, i32* %11, align 4
  %104 = load i32, i32* %10, align 4
  %105 = icmp slt i32 %103, %104
  br i1 %105, label %106, label %116

106:                                              ; preds = %102
  %107 = load i32, i32* %11, align 4
  %108 = sext i32 %107 to i64
  %109 = getelementptr inbounds [100 x i32], [100 x i32]* %2, i64 0, i64 %108
  %110 = load i32, i32* %109, align 4
  %111 = call i32 (i8*, ...) @printf(i8* getelementptr inbounds ([3 x i8], [3 x i8]* @.str, i64 0, i64 0), i32 %110)
  %112 = call i32 (i8*, ...) @printf(i8* getelementptr inbounds ([2 x i8], [2 x i8]* @.str.1, i64 0, i64 0))
  br label %113

113:                                              ; preds = %106
  %114 = load i32, i32* %11, align 4
  %115 = add nsw i32 %114, 1
  store i32 %115, i32* %11, align 4
  br label %102

116:                                              ; preds = %102
  ret void
}

declare dso_local i32 @__isoc99_scanf(i8*, ...) #1

declare dso_local i32 @printf(i8*, ...) #1


!llvm.module.flags = !{!0}
!llvm.ident = !{!1}

!0 = !{i32 1, !"wchar_size", i32 4}
!1 = !{!"clang version 10.0.0-4ubuntu1 "}
